(dp0
I1
(dp1
S'number_of_mutations'
p2
I3
sS'population_size'
p3
I20
sS'generational'
p4
I01
sS'mutation_method'
p5
S'step_wise_after'
p6
sS'parent_selection_mode'
p7
S'rank_exponential'
p8
sS'number_of_children'
p9
I80
sS'number_of_generations'
p10
I1000
sS'early_stopping_criterium'
p11
F0.01
sS'mutation_size'
p12
F0.001
ssI2
(dp13
g2
I5
sg3
I20
sg4
I01
sg5
g6
sg7
g8
sg9
I80
sg10
I1000
sg11
F0.01
sg12
F0.001
ssI3
(dp14
g2
I20
sg3
I20
sg4
I01
sg5
g6
sg7
g8
sg9
I80
sg10
I1000
sg11
F0.01
sg12
F0.001
ssI4
(dp15
g2
I50
sg3
I20
sg4
I01
sg5
g6
sg7
g8
sg9
I80
sg10
I1000
sg11
F0.01
sg12
F0.0005
ssI5
(dp16
g2
I50
sg3
I20
sg4
I01
sg5
g6
sg7
g8
sg9
I80
sg10
I1000
sg11
F0.01
sg12
F0.001
ssI6
(dp17
g2
I75
sg3
I20
sg4
I01
sg5
g6
sg7
g8
sg9
I80
sg10
I1000
sg11
F0.01
sg12
F0.0025
ssI7
(dp18
g2
I100
sg3
I20
sg4
I01
sg5
g6
sg7
g8
sg9
I80
sg10
I1000
sg11
F0.01
sg12
F0.0025
ssI8
(dp19
g2
I100
sg3
I20
sg4
I01
sg5
g6
sg7
g8
sg9
I80
sg10
I600
sg11
F0.01
sg12
F0.0015
ssI9
(dp20
g2
I200
sg3
I20
sg4
I01
sg5
g6
sg7
g8
sg9
I80
sg10
I1000
sg11
F0.01
sg12
F0.001
ss.