(dp0
I1
(dp1
S'number_of_mutations'
p2
I3
sS'population_size'
p3
I20
sS'generational'
p4
I00
sS'mutation_method'
p5
S'step_wise_after'
p6
sS'parent_selection_mode'
p7
S'rank_exponential'
p8
sS'number_of_children'
p9
I80
sS'number_of_generations'
p10
I10
sS'early_stopping_criterium'
p11
F0.01
sS'mutation_size'
p12
F0.05
ssI2
(dp13
g2
I9
sg3
I20
sg4
I00
sg5
g6
sg7
g8
sg9
I80
sg10
I10
sg11
F0.01
sg12
F0.01
ssI3
(dp14
g2
I20
sg3
I20
sg4
I00
sg5
g6
sg7
g8
sg9
I80
sg10
I5
sg11
F0.01
sg12
F0.01
ssI4
(dp15
g2
I30
sg3
I20
sg4
I00
sg5
g6
sg7
g8
sg9
I80
sg10
I5
sg11
F0.01
sg12
F0.001
ssI5
(dp16
g2
I40
sg3
I20
sg4
I00
sg5
g6
sg7
g8
sg9
I80
sg10
I20
sg11
F0.01
sg12
F0.001
ssI6
(dp17
g2
I100
sg3
I20
sg4
I00
sg5
g6
sg7
g8
sg9
I80
sg10
I75
sg11
F0.01
sg12
F0.0005
ssI7
(dp18
g2
I100
sg3
I20
sg4
I00
sg5
g6
sg7
g8
sg9
I80
sg10
I80
sg11
F0.01
sg12
F0.0005
ssI8
(dp19
g2
I200
sg3
I20
sg4
I00
sg5
g6
sg7
g8
sg9
I80
sg10
I250
sg11
F0.01
sg12
F0.0002
ssI9
(dp20
g2
I400
sg3
I20
sg4
I00
sg5
g6
sg7
g8
sg9
I80
sg10
I700
sg11
F0.01
sg12
F9e-05
ss.